; Function Attrs: mustprogress uwtable
define void @_ZN6icu_7522TransliterationRuleSetC2ER10UErrorCode(ptr nocapture noundef nonnull writeonly align 8 dereferenceable(1056) %this, ptr noundef nonnull align 4 dereferenceable(4) %status) unnamed_addr #0 align 2 personality ptr @__gxx_personality_v0 {
entry:
  store ptr getelementptr inbounds ({ [8 x ptr] }, ptr @_ZTVN6icu_7522TransliterationRuleSetE, i64 0, i32 0, i64 2), ptr %this, align 8
  %ruleVector = getelementptr inbounds i8, ptr %this, i64 8
  tail call void @llvm.memset.p0.i64(ptr noundef nonnull align 8 dereferenceable(1048) %ruleVector, i8 0, i64 1048, i1 false)
  %call = tail call noundef ptr @_ZN6icu_757UMemorynwEm(i64 noundef 40) #11
  %new.isnull = icmp eq ptr %call, null
  br i1 %new.isnull, label %new.cont, label %new.notnull

new.notnull:                                      ; preds = %entry
  invoke void @_ZN6icu_757UVectorC1EPFvPvEPFa8UElementS4_ER10UErrorCode(ptr noundef nonnull align 8 dereferenceable(40) %call, ptr noundef nonnull @_ZL11_deleteRulePv, ptr noundef null, ptr noundef nonnull align 4 dereferenceable(4) %status)
          to label %_ZN6icu_7512LocalPointerINS_7UVectorEEC2EPS1_R10UErrorCode.exit unwind label %lpad

new.cont:                                         ; preds = %entry
  %0 = load i32, ptr %status, align 4
  %cmp.i.i = icmp sgt i32 %0, 0
  br i1 %cmp.i.i, label %_ZN6icu_7512LocalPointerINS_7UVectorEED2Ev.exit, label %if.then.i

if.then.i:                                        ; preds = %new.cont
  store i32 7, ptr %status, align 4
  br label %_ZN6icu_7512LocalPointerINS_7UVectorEED2Ev.exit

_ZN6icu_7512LocalPointerINS_7UVectorEEC2EPS1_R10UErrorCode.exit: ; preds = %new.notnull
  %.pre = load i32, ptr %status, align 4
  %1 = icmp slt i32 %.pre, 1
  br i1 %1, label %cleanup.thread, label %delete.notnull.i

lpad:                                             ; preds = %new.notnull
  %2 = landingpad { ptr, i32 }
          cleanup
  tail call void @_ZN6icu_757UMemorydlEPv(ptr noundef nonnull %call) #11
  resume { ptr, i32 } %2

cleanup.thread:                                   ; preds = %_ZN6icu_7512LocalPointerINS_7UVectorEEC2EPS1_R10UErrorCode.exit
  store ptr %call, ptr %ruleVector, align 8
  br label %_ZN6icu_7512LocalPointerINS_7UVectorEED2Ev.exit

delete.notnull.i:                                 ; preds = %_ZN6icu_7512LocalPointerINS_7UVectorEEC2EPS1_R10UErrorCode.exit
  %vtable.i = load ptr, ptr %call, align 8
  %vfn.i = getelementptr inbounds i8, ptr %vtable.i, i64 8
  %3 = load ptr, ptr %vfn.i, align 8
  tail call void %3(ptr noundef nonnull align 8 dereferenceable(40) %call) #11
  br label %_ZN6icu_7512LocalPointerINS_7UVectorEED2Ev.exit

_ZN6icu_7512LocalPointerINS_7UVectorEED2Ev.exit:  ; preds = %new.cont, %if.then.i, %cleanup.thread, %delete.notnull.i
  ret void
}